; ModuleID = 'source-C-CXX/10/638.c'
source_filename = "source-C-CXX/10/638.c"
target datalayout = "e-m:e-p270:32:32-p271:32:32-p272:64:64-i64:64-f80:128-n8:16:32:64-S128"
target triple = "x86_64-pc-linux-gnu"

@__const.main.days = private unnamed_addr constant [13 x i32] [i32 0, i32 31, i32 28, i32 31, i32 30, i32 31, i32 30, i32 31, i32 31, i32 30, i32 31, i32 30, i32 31], align 16
@.str = private unnamed_addr constant [7 x i8] c"%d%d%d\00", align 1
@.str.1 = private unnamed_addr constant [4 x i8] c"%d\0A\00", align 1

; Function Attrs: nofree nounwind sspstrong uwtable
define dso_local i32 @main() local_unnamed_addr #0 {
  %1 = alloca [13 x i32], align 16
  %2 = alloca i32, align 4
  %3 = alloca i32, align 4
  %4 = alloca i32, align 4
  %5 = bitcast [13 x i32]* %1 to i8*
  call void @llvm.lifetime.start.p0i8(i64 52, i8* nonnull %5) #5
  call void @llvm.memcpy.p0i8.p0i8.i64(i8* noundef nonnull align 16 dereferenceable(52) %5, i8* noundef nonnull align 16 dereferenceable(52) bitcast ([13 x i32]* @__const.main.days to i8*), i64 52, i1 false)
  %6 = bitcast i32* %2 to i8*
  call void @llvm.lifetime.start.p0i8(i64 4, i8* nonnull %6) #5
  %7 = bitcast i32* %3 to i8*
  call void @llvm.lifetime.start.p0i8(i64 4, i8* nonnull %7) #5
  %8 = bitcast i32* %4 to i8*
  call void @llvm.lifetime.start.p0i8(i64 4, i8* nonnull %8) #5
  %9 = call i32 (i8*, ...) @__isoc99_scanf(i8* getelementptr inbounds ([7 x i8], [7 x i8]* @.str, i64 0, i64 0), i32* nonnull %2, i32* nonnull %3, i32* nonnull %4)
  %10 = load i32, i32* %2, align 4, !tbaa !5
  %11 = and i32 %10, 3
  %12 = icmp eq i32 %11, 0
  %13 = srem i32 %10, 100
  %14 = icmp ne i32 %13, 0
  %15 = and i1 %12, %14
  %16 = srem i32 %10, 400
  %17 = icmp eq i32 %16, 0
  %18 = select i1 %15, i1 true, i1 %17
  br i1 %18, label %19, label %21

19:                                               ; preds = %0
  %20 = getelementptr inbounds [13 x i32], [13 x i32]* %1, i64 0, i64 2
  store i32 29, i32* %20, align 8, !tbaa !5
  br label %21

21:                                               ; preds = %0, %19
  %22 = load i32, i32* %4, align 4, !tbaa !5
  %23 = load i32, i32* %3, align 4, !tbaa !5
  %24 = icmp sgt i32 %23, 1
  br i1 %24, label %25, label %125

25:                                               ; preds = %21
  %26 = zext i32 %23 to i64
  %27 = add nsw i64 %26, -1
  %28 = icmp ult i64 %27, 8
  br i1 %28, label %114, label %29

29:                                               ; preds = %25
  %30 = and i64 %27, -8
  %31 = or i64 %30, 1
  %32 = insertelement <4 x i32> <i32 poison, i32 0, i32 0, i32 0>, i32 %22, i32 0
  %33 = add nsw i64 %30, -8
  %34 = lshr exact i64 %33, 3
  %35 = add nuw nsw i64 %34, 1
  %36 = and i64 %35, 3
  %37 = icmp ult i64 %33, 24
  br i1 %37, label %84, label %38

38:                                               ; preds = %29
  %39 = and i64 %35, 4611686018427387900
  br label %40

40:                                               ; preds = %40, %38
  %41 = phi i64 [ 0, %38 ], [ %81, %40 ]
  %42 = phi <4 x i32> [ %32, %38 ], [ %79, %40 ]
  %43 = phi <4 x i32> [ zeroinitializer, %38 ], [ %80, %40 ]
  %44 = phi i64 [ %39, %38 ], [ %82, %40 ]
  %45 = or i64 %41, 1
  %46 = getelementptr inbounds [13 x i32], [13 x i32]* %1, i64 0, i64 %45
  %47 = bitcast i32* %46 to <4 x i32>*
  %48 = load <4 x i32>, <4 x i32>* %47, align 4, !tbaa !5
  %49 = getelementptr inbounds i32, i32* %46, i64 4
  %50 = bitcast i32* %49 to <4 x i32>*
  %51 = load <4 x i32>, <4 x i32>* %50, align 4, !tbaa !5
  %52 = add <4 x i32> %48, %42
  %53 = add <4 x i32> %51, %43
  %54 = or i64 %41, 9
  %55 = getelementptr inbounds [13 x i32], [13 x i32]* %1, i64 0, i64 %54
  %56 = bitcast i32* %55 to <4 x i32>*
  %57 = load <4 x i32>, <4 x i32>* %56, align 4, !tbaa !5
  %58 = getelementptr inbounds i32, i32* %55, i64 4
  %59 = bitcast i32* %58 to <4 x i32>*
  %60 = load <4 x i32>, <4 x i32>* %59, align 4, !tbaa !5
  %61 = add <4 x i32> %57, %52
  %62 = add <4 x i32> %60, %53
  %63 = or i64 %41, 17
  %64 = getelementptr inbounds [13 x i32], [13 x i32]* %1, i64 0, i64 %63
  %65 = bitcast i32* %64 to <4 x i32>*
  %66 = load <4 x i32>, <4 x i32>* %65, align 4, !tbaa !5
  %67 = getelementptr inbounds i32, i32* %64, i64 4
  %68 = bitcast i32* %67 to <4 x i32>*
  %69 = load <4 x i32>, <4 x i32>* %68, align 4, !tbaa !5
  %70 = add <4 x i32> %66, %61
  %71 = add <4 x i32> %69, %62
  %72 = or i64 %41, 25
  %73 = getelementptr inbounds [13 x i32], [13 x i32]* %1, i64 0, i64 %72
  %74 = bitcast i32* %73 to <4 x i32>*
  %75 = load <4 x i32>, <4 x i32>* %74, align 4, !tbaa !5
  %76 = getelementptr inbounds i32, i32* %73, i64 4
  %77 = bitcast i32* %76 to <4 x i32>*
  %78 = load <4 x i32>, <4 x i32>* %77, align 4, !tbaa !5
  %79 = add <4 x i32> %75, %70
  %80 = add <4 x i32> %78, %71
  %81 = add nuw i64 %41, 32
  %82 = add i64 %44, -4
  %83 = icmp eq i64 %82, 0
  br i1 %83, label %84, label %40, !llvm.loop !9

84:                                               ; preds = %40, %29
  %85 = phi <4 x i32> [ undef, %29 ], [ %79, %40 ]
  %86 = phi <4 x i32> [ undef, %29 ], [ %80, %40 ]
  %87 = phi i64 [ 0, %29 ], [ %81, %40 ]
  %88 = phi <4 x i32> [ %32, %29 ], [ %79, %40 ]
  %89 = phi <4 x i32> [ zeroinitializer, %29 ], [ %80, %40 ]
  %90 = icmp eq i64 %36, 0
  br i1 %90, label %108, label %91

91:                                               ; preds = %84, %91
  %92 = phi i64 [ %105, %91 ], [ %87, %84 ]
  %93 = phi <4 x i32> [ %103, %91 ], [ %88, %84 ]
  %94 = phi <4 x i32> [ %104, %91 ], [ %89, %84 ]
  %95 = phi i64 [ %106, %91 ], [ %36, %84 ]
  %96 = or i64 %92, 1
  %97 = getelementptr inbounds [13 x i32], [13 x i32]* %1, i64 0, i64 %96
  %98 = bitcast i32* %97 to <4 x i32>*
  %99 = load <4 x i32>, <4 x i32>* %98, align 4, !tbaa !5
  %100 = getelementptr inbounds i32, i32* %97, i64 4
  %101 = bitcast i32* %100 to <4 x i32>*
  %102 = load <4 x i32>, <4 x i32>* %101, align 4, !tbaa !5
  %103 = add <4 x i32> %99, %93
  %104 = add <4 x i32> %102, %94
  %105 = add nuw i64 %92, 8
  %106 = add i64 %95, -1
  %107 = icmp eq i64 %106, 0
  br i1 %107, label %108, label %91, !llvm.loop !12

108:                                              ; preds = %91, %84
  %109 = phi <4 x i32> [ %85, %84 ], [ %103, %91 ]
  %110 = phi <4 x i32> [ %86, %84 ], [ %104, %91 ]
  %111 = add <4 x i32> %110, %109
  %112 = call i32 @llvm.vector.reduce.add.v4i32(<4 x i32> %111)
  %113 = icmp eq i64 %27, %30
  br i1 %113, label %125, label %114

114:                                              ; preds = %25, %108
  %115 = phi i64 [ 1, %25 ], [ %31, %108 ]
  %116 = phi i32 [ %22, %25 ], [ %112, %108 ]
  br label %117

117:                                              ; preds = %114, %117
  %118 = phi i64 [ %123, %117 ], [ %115, %114 ]
  %119 = phi i32 [ %122, %117 ], [ %116, %114 ]
  %120 = getelementptr inbounds [13 x i32], [13 x i32]* %1, i64 0, i64 %118
  %121 = load i32, i32* %120, align 4, !tbaa !5
  %122 = add nsw i32 %121, %119
  %123 = add nuw nsw i64 %118, 1
  %124 = icmp eq i64 %123, %26
  br i1 %124, label %125, label %117, !llvm.loop !14

125:                                              ; preds = %117, %108, %21
  %126 = phi i32 [ %22, %21 ], [ %112, %108 ], [ %122, %117 ]
  %127 = call i32 (i8*, ...) @printf(i8* nonnull dereferenceable(1) getelementptr inbounds ([4 x i8], [4 x i8]* @.str.1, i64 0, i64 0), i32 %126)
  call void @llvm.lifetime.end.p0i8(i64 4, i8* nonnull %8) #5
  call void @llvm.lifetime.end.p0i8(i64 4, i8* nonnull %7) #5
  call void @llvm.lifetime.end.p0i8(i64 4, i8* nonnull %6) #5
  call void @llvm.lifetime.end.p0i8(i64 52, i8* nonnull %5) #5
  ret i32 0
}

; Function Attrs: argmemonly mustprogress nofree nosync nounwind willreturn
declare void @llvm.lifetime.start.p0i8(i64 immarg, i8* nocapture) #1

; Function Attrs: argmemonly mustprogress nofree nounwind willreturn
declare void @llvm.memcpy.p0i8.p0i8.i64(i8* noalias nocapture writeonly, i8* noalias nocapture readonly, i64, i1 immarg) #2

; Function Attrs: nofree nounwind
declare noundef i32 @__isoc99_scanf(i8* nocapture noundef readonly, ...) local_unnamed_addr #3

; Function Attrs: nofree nounwind
declare noundef i32 @printf(i8* nocapture noundef readonly, ...) local_unnamed_addr #3

; Function Attrs: argmemonly mustprogress nofree nosync nounwind willreturn
declare void @llvm.lifetime.end.p0i8(i64 immarg, i8* nocapture) #1

; Function Attrs: nofree nosync nounwind readnone willreturn
declare i32 @llvm.vector.reduce.add.v4i32(<4 x i32>) #4


!llvm.module.flags = !{!0, !1, !2, !3}
!llvm.ident = !{!4}

!0 = !{i32 1, !"wchar_size", i32 4}
!1 = !{i32 7, !"PIC Level", i32 2}
!2 = !{i32 7, !"PIE Level", i32 2}
!3 = !{i32 7, !"uwtable", i32 1}
!4 = !{!"clang version 13.0.0"}
!5 = !{!6, !6, i64 0}
!6 = !{!"int", !7, i64 0}
!7 = !{!"omnipotent char", !8, i64 0}
!8 = !{!"Simple C/C++ TBAA"}
!9 = distinct !{!9, !10, !11}
!10 = !{!"llvm.loop.mustprogress"}
!11 = !{!"llvm.loop.isvectorized", i32 1}
!12 = distinct !{!12, !13}
!13 = !{!"llvm.loop.unroll.disable"}
!14 = distinct !{!14, !10, !15, !11}
!15 = !{!"llvm.loop.unroll.runtime.disable"}
